target datalayout = "e-m:e-p270:32:32-p271:32:32-p272:64:64-i64:64-i128:128-f80:128-n8:16:32:64-S128"
target triple = "x86_64-pc-linux-gnu"

%struct._zend_executor_globals = type { %struct._zval_struct, %struct._zval_struct, [32 x ptr], ptr, ptr, %struct._zend_array, %struct._zend_array, ptr, i32, i32, ptr, ptr, ptr, ptr, ptr, ptr, i64, ptr, ptr, i32, i32, i64, i32, i32, i32, i8, i8, %struct.zend_atomic_bool_s, %struct.zend_atomic_bool_s, ptr, i64, ptr, ptr, %struct._zend_array, %struct._zend_array, i32, i8, %struct._zval_struct, %struct._zval_struct, %struct._zend_stack, %struct._zend_stack, %struct._zend_stack, ptr, i32, i32, i64, ptr, ptr, ptr, %struct._zend_objects_store, ptr, ptr, ptr, [3 x %struct._zend_op], ptr, i8, i8, i64, i32, i32, ptr, [16 x %struct._HashTableIterator], ptr, %union._zend_function, %struct._zend_op, %struct._zend_array, i64, %struct.zend_get_gc_buffer, ptr, ptr, ptr, i64, i8, i32, ptr, ptr, i64, %struct._zend_call_stack, i64, i64, [6 x ptr] }
%struct.zend_atomic_bool_s = type { i8 }
%struct._zval_struct = type { %union._zend_value, %union.anon, %union.anon.2 }
%union._zend_value = type { i64 }
%union.anon = type { i32 }
%union.anon.2 = type { i32 }
%struct._zend_stack = type { i32, i32, i32, ptr }
%struct._zend_objects_store = type { ptr, i32, i32, i32 }
%struct._HashTableIterator = type { ptr, i32, i32 }
%union._zend_function = type { %struct._zend_op_array }
%struct._zend_op_array = type { i8, [3 x i8], i32, ptr, ptr, ptr, i32, i32, ptr, ptr, ptr, ptr, i32, i32, i32, i32, ptr, ptr, ptr, ptr, ptr, i32, i32, ptr, ptr, ptr, i32, i32, i32, i32, ptr, ptr, [6 x ptr] }
%struct._zend_op = type { ptr, %union._znode_op, %union._znode_op, %union._znode_op, i32, i32, i8, i8, i8, i8 }
%union._znode_op = type { i32 }
%struct._zend_array = type { %struct._zend_refcounted_h, %union.anon.4, i32, %union.anon.6, i32, i32, i32, i32, i64, ptr }
%struct._zend_refcounted_h = type { i32, %union.anon.3 }
%union.anon.3 = type { i32 }
%union.anon.4 = type { i32 }
%union.anon.6 = type { ptr }
%struct.zend_get_gc_buffer = type { ptr, ptr, ptr }
%struct._zend_call_stack = type { ptr, i64 }
%struct._zend_execute_data = type { ptr, ptr, ptr, ptr, %struct._zval_struct, ptr, ptr, ptr, ptr }
%struct._zend_string = type { %struct._zend_refcounted_h, i64, i64, [1 x i8] }

@executor_globals = external global %struct._zend_executor_globals, align 8
@.str.4 = private unnamed_addr constant [2 x i8] c"S\00", align 1
@.str.6 = private unnamed_addr constant [40 x i8] c"%s:// never existed, nothing to restore\00", align 1
@.str.7 = private unnamed_addr constant [44 x i8] c"%s:// was never changed, nothing to restore\00", align 1
@.str.8 = private unnamed_addr constant [41 x i8] c"Unable to restore original %s:// wrapper\00", align 1

; Function Attrs: nounwind uwtable
define hidden void @zif_stream_wrapper_restore(ptr noundef %0, ptr noundef %1) #0 {
  %3 = alloca ptr, align 8
  %4 = alloca ptr, align 8
  %5 = alloca ptr, align 8
  %6 = alloca ptr, align 8
  %7 = alloca ptr, align 8
  %8 = alloca ptr, align 8
  %9 = alloca ptr, align 8
  %10 = alloca ptr, align 8
  %11 = alloca ptr, align 8
  %12 = alloca ptr, align 8
  %13 = alloca ptr, align 8
  %14 = alloca ptr, align 8
  %15 = alloca ptr, align 8
  %16 = alloca ptr, align 8
  store ptr %0, ptr %11, align 8
  store ptr %1, ptr %12, align 8
  %17 = load ptr, ptr %11, align 8
  %18 = getelementptr inbounds %struct._zend_execute_data, ptr %17, i32 0, i32 4
  %19 = getelementptr inbounds %struct._zval_struct, ptr %18, i32 0, i32 2
  %20 = load i32, ptr %19, align 4
  %21 = call i32 (i32, ptr, ...) @zend_parse_parameters(i32 noundef %20, ptr noundef @.str.4, ptr noundef %13)
  %22 = icmp eq i32 %21, -1
  br i1 %22, label %23, label %28

23:                                               ; preds = %2
  br label %24

24:                                               ; preds = %23
  %25 = load ptr, ptr getelementptr inbounds (%struct._zend_executor_globals, ptr @executor_globals, i32 0, i32 50), align 8
  %26 = icmp ne ptr %25, null
  call void @llvm.assume(i1 %26)
  br label %114

27:                                               ; No predecessors!
  br label %28

28:                                               ; preds = %27, %2
  %29 = call ptr @php_stream_get_url_stream_wrappers_hash_global()
  store ptr %29, ptr %15, align 8
  %30 = load ptr, ptr %15, align 8
  %31 = load ptr, ptr %13, align 8
  store ptr %30, ptr %4, align 8
  store ptr %31, ptr %5, align 8
  %32 = load ptr, ptr %4, align 8
  %33 = load ptr, ptr %5, align 8
  %34 = call ptr @zend_hash_find(ptr noundef %32, ptr noundef %33) #12
  store ptr %34, ptr %6, align 8
  %35 = load ptr, ptr %6, align 8
  %36 = icmp ne ptr %35, null
  br i1 %36, label %37, label %43

37:                                               ; preds = %28
  %38 = load ptr, ptr %6, align 8
  %39 = load ptr, ptr %38, align 8
  %40 = icmp ne ptr %39, null
  call void @llvm.assume(i1 %40)
  %41 = load ptr, ptr %6, align 8
  %42 = load ptr, ptr %41, align 8
  store ptr %42, ptr %3, align 8
  br label %44

43:                                               ; preds = %28
  store ptr null, ptr %3, align 8
  br label %44

44:                                               ; preds = %43, %37
  %45 = load ptr, ptr %3, align 8
  store ptr %45, ptr %14, align 8
  %46 = icmp eq ptr %45, null
  br i1 %46, label %47, label %57

47:                                               ; preds = %44
  %48 = load ptr, ptr %13, align 8
  %49 = getelementptr inbounds %struct._zend_string, ptr %48, i32 0, i32 3
  %50 = getelementptr inbounds [1 x i8], ptr %49, i64 0, i64 0
  call void (ptr, i32, ptr, ...) @php_error_docref(ptr noundef null, i32 noundef 2, ptr noundef @.str.6, ptr noundef %50)
  br label %51

51:                                               ; preds = %47
  br label %52

52:                                               ; preds = %51
  %53 = load ptr, ptr %12, align 8
  %54 = getelementptr inbounds %struct._zval_struct, ptr %53, i32 0, i32 1
  store i32 2, ptr %54, align 8
  br label %55

55:                                               ; preds = %52
  br label %114

56:                                               ; No predecessors!
  br label %57

57:                                               ; preds = %56, %44
  %58 = call ptr @_php_stream_get_url_stream_wrappers_hash()
  store ptr %58, ptr %16, align 8
  %59 = load ptr, ptr %16, align 8
  %60 = load ptr, ptr %15, align 8
  %61 = icmp eq ptr %59, %60
  br i1 %61, label %81, label %62

62:                                               ; preds = %57
  %63 = load ptr, ptr %16, align 8
  %64 = load ptr, ptr %13, align 8
  store ptr %63, ptr %8, align 8
  store ptr %64, ptr %9, align 8
  %65 = load ptr, ptr %8, align 8
  %66 = load ptr, ptr %9, align 8
  %67 = call ptr @zend_hash_find(ptr noundef %65, ptr noundef %66) #12
  store ptr %67, ptr %10, align 8
  %68 = load ptr, ptr %10, align 8
  %69 = icmp ne ptr %68, null
  br i1 %69, label %70, label %76

70:                                               ; preds = %62
  %71 = load ptr, ptr %10, align 8
  %72 = load ptr, ptr %71, align 8
  %73 = icmp ne ptr %72, null
  call void @llvm.assume(i1 %73)
  %74 = load ptr, ptr %10, align 8
  %75 = load ptr, ptr %74, align 8
  store ptr %75, ptr %7, align 8
  br label %77

76:                                               ; preds = %62
  store ptr null, ptr %7, align 8
  br label %77

77:                                               ; preds = %76, %70
  %78 = load ptr, ptr %7, align 8
  %79 = load ptr, ptr %14, align 8
  %80 = icmp eq ptr %78, %79
  br i1 %80, label %81, label %91

81:                                               ; preds = %77, %57
  %82 = load ptr, ptr %13, align 8
  %83 = getelementptr inbounds %struct._zend_string, ptr %82, i32 0, i32 3
  %84 = getelementptr inbounds [1 x i8], ptr %83, i64 0, i64 0
  call void (ptr, i32, ptr, ...) @php_error_docref(ptr noundef null, i32 noundef 8, ptr noundef @.str.7, ptr noundef %84)
  br label %85

85:                                               ; preds = %81
  br label %86

86:                                               ; preds = %85
  %87 = load ptr, ptr %12, align 8
  %88 = getelementptr inbounds %struct._zval_struct, ptr %87, i32 0, i32 1
  store i32 3, ptr %88, align 8
  br label %89

89:                                               ; preds = %86
  br label %114

90:                                               ; No predecessors!
  br label %91

91:                                               ; preds = %90, %77
  %92 = load ptr, ptr %13, align 8
  %93 = call i32 @php_unregister_url_stream_wrapper_volatile(ptr noundef %92)
  %94 = load ptr, ptr %13, align 8
  %95 = load ptr, ptr %14, align 8
  %96 = call i32 @php_register_url_stream_wrapper_volatile(ptr noundef %94, ptr noundef %95)
  %97 = icmp eq i32 %96, -1
  br i1 %97, label %98, label %108

98:                                               ; preds = %91
  %99 = load ptr, ptr %13, align 8
  %100 = getelementptr inbounds %struct._zend_string, ptr %99, i32 0, i32 3
  %101 = getelementptr inbounds [1 x i8], ptr %100, i64 0, i64 0
  call void (ptr, i32, ptr, ...) @php_error_docref(ptr noundef null, i32 noundef 2, ptr noundef @.str.8, ptr noundef %101)
  br label %102

102:                                              ; preds = %98
  br label %103

103:                                              ; preds = %102
  %104 = load ptr, ptr %12, align 8
  %105 = getelementptr inbounds %struct._zval_struct, ptr %104, i32 0, i32 1
  store i32 2, ptr %105, align 8
  br label %106

106:                                              ; preds = %103
  br label %114

107:                                              ; No predecessors!
  br label %108

108:                                              ; preds = %107, %91
  br label %109

109:                                              ; preds = %108
  br label %110

110:                                              ; preds = %109
  %111 = load ptr, ptr %12, align 8
  %112 = getelementptr inbounds %struct._zval_struct, ptr %111, i32 0, i32 1
  store i32 3, ptr %112, align 8
  br label %113

113:                                              ; preds = %110
  br label %114

114:                                              ; preds = %113, %106, %89, %55, %24
  ret void
}