; Function Attrs: nounwind uwtable
define hidden void @zif_stream_wrapper_restore(ptr nocapture noundef readonly %0, ptr nocapture noundef writeonly %1) local_unnamed_addr #0 {
  %3 = alloca ptr, align 8
  %4 = getelementptr inbounds i8, ptr %0, i64 44
  %5 = load i32, ptr %4, align 4
  %6 = call i32 (i32, ptr, ...) @zend_parse_parameters(i32 noundef %5, ptr noundef nonnull @.str.4, ptr noundef nonnull %3) #11
  %7 = icmp eq i32 %6, -1
  br i1 %7, label %8, label %11

8:                                                ; preds = %2
  %9 = load ptr, ptr getelementptr inbounds (%struct._zend_executor_globals, ptr @executor_globals, i64 0, i32 50), align 8
  %10 = icmp ne ptr %9, null
  call void @llvm.assume(i1 %10)
  br label %44

11:                                               ; preds = %2
  %12 = call ptr @php_stream_get_url_stream_wrappers_hash_global() #11
  %13 = load ptr, ptr %3, align 8
  %14 = call ptr @zend_hash_find(ptr noundef %12, ptr noundef %13) #11
  %.not = icmp eq ptr %14, null
  br i1 %.not, label %15, label %19

15:                                               ; preds = %11
  %16 = load ptr, ptr %3, align 8
  %17 = getelementptr inbounds i8, ptr %16, i64 24
  call void (ptr, i32, ptr, ...) @php_error_docref(ptr noundef null, i32 noundef 2, ptr noundef nonnull @.str.6, ptr noundef nonnull %17) #11
  %18 = getelementptr inbounds i8, ptr %1, i64 8
  store i32 2, ptr %18, align 8
  br label %44

19:                                               ; preds = %11
  %20 = load ptr, ptr %14, align 8, !nonnull !4, !noundef !4
  %21 = call ptr @_php_stream_get_url_stream_wrappers_hash() #11
  %22 = icmp eq ptr %21, %12
  br i1 %22, label %29, label %23

23:                                               ; preds = %19
  %24 = load ptr, ptr %3, align 8
  %25 = call ptr @zend_hash_find(ptr noundef %21, ptr noundef %24) #11
  %.not27 = icmp eq ptr %25, null
  br i1 %.not27, label %.thread29, label %26

26:                                               ; preds = %23
  %27 = load ptr, ptr %25, align 8, !nonnull !4, !noundef !4
  %28 = icmp eq ptr %27, %20
  br i1 %28, label %29, label %.thread29

29:                                               ; preds = %26, %19
  %30 = load ptr, ptr %3, align 8
  %31 = getelementptr inbounds i8, ptr %30, i64 24
  call void (ptr, i32, ptr, ...) @php_error_docref(ptr noundef null, i32 noundef 8, ptr noundef nonnull @.str.7, ptr noundef nonnull %31) #11
  %32 = getelementptr inbounds i8, ptr %1, i64 8
  store i32 3, ptr %32, align 8
  br label %44

.thread29:                                        ; preds = %23, %26
  %33 = load ptr, ptr %3, align 8
  %34 = call i32 @php_unregister_url_stream_wrapper_volatile(ptr noundef %33) #11
  %35 = load ptr, ptr %3, align 8
  %36 = call i32 @php_register_url_stream_wrapper_volatile(ptr noundef %35, ptr noundef nonnull %20) #11
  %37 = icmp eq i32 %36, -1
  br i1 %37, label %38, label %42

38:                                               ; preds = %.thread29
  %39 = load ptr, ptr %3, align 8
  %40 = getelementptr inbounds i8, ptr %39, i64 24
  call void (ptr, i32, ptr, ...) @php_error_docref(ptr noundef null, i32 noundef 2, ptr noundef nonnull @.str.8, ptr noundef nonnull %40) #11
  %41 = getelementptr inbounds i8, ptr %1, i64 8
  store i32 2, ptr %41, align 8
  br label %44

42:                                               ; preds = %.thread29
  %43 = getelementptr inbounds i8, ptr %1, i64 8
  store i32 3, ptr %43, align 8
  br label %44

44:                                               ; preds = %42, %38, %29, %15, %8
  ret void
}